; Function Attrs: inlinehint nounwind uwtable
define internal fastcc i32 @Cbs_ManAnalyze(ptr noundef captures(none) %0, i32 noundef %1, ptr noundef nonnull %2, ptr noundef %3, ptr noundef %4) unnamed_addr #13 {
  %6 = getelementptr inbounds nuw i8, ptr %0, i64 104
  %7 = getelementptr inbounds nuw i8, ptr %0, i64 108
  %8 = load i32, ptr %7, align 4, !tbaa !49
  %9 = getelementptr inbounds nuw i8, ptr %0, i64 112
  %10 = load i32, ptr %9, align 8, !tbaa !50
  %11 = icmp eq i32 %8, %10
  br i1 %11, label %12, label %._crit_edge.i

._crit_edge.i:                                    ; preds = %5
  %.phi.trans.insert.i = getelementptr inbounds nuw i8, ptr %0, i64 120
  %.pre.i = load ptr, ptr %.phi.trans.insert.i, align 8, !tbaa !51
  br label %Cbs_QuePush.exit

12:                                               ; preds = %5
  %13 = shl nsw i32 %8, 1
  store i32 %13, ptr %9, align 8, !tbaa !50
  %14 = getelementptr inbounds nuw i8, ptr %0, i64 120
  %15 = load ptr, ptr %14, align 8, !tbaa !51
  %.not.i = icmp eq ptr %15, null
  %16 = sext i32 %13 to i64
  %17 = shl nsw i64 %16, 3
  br i1 %.not.i, label %20, label %18

18:                                               ; preds = %12
  %19 = tail call ptr @realloc(ptr noundef nonnull %15, i64 noundef %17) #25
  %.pre12.pre.i = load i32, ptr %7, align 4, !tbaa !49
  %.pre.pre = load i32, ptr %9, align 8, !tbaa !50
  br label %22

20:                                               ; preds = %12
  %21 = tail call noalias ptr @malloc(i64 noundef %17) #23
  br label %22

22:                                               ; preds = %20, %18
  %.pre = phi i32 [ %.pre.pre, %18 ], [ %13, %20 ]
  %.pre12.i = phi i32 [ %.pre12.pre.i, %18 ], [ %8, %20 ]
  %23 = phi ptr [ %19, %18 ], [ %21, %20 ]
  store ptr %23, ptr %14, align 8, !tbaa !51
  br label %Cbs_QuePush.exit

Cbs_QuePush.exit:                                 ; preds = %._crit_edge.i, %22
  %24 = phi i32 [ %10, %._crit_edge.i ], [ %.pre, %22 ]
  %25 = phi i32 [ %8, %._crit_edge.i ], [ %.pre12.i, %22 ]
  %26 = phi ptr [ %.pre.i, %._crit_edge.i ], [ %23, %22 ]
  %27 = add nsw i32 %25, 1
  store i32 %27, ptr %7, align 4, !tbaa !49
  %28 = sext i32 %25 to i64
  %29 = getelementptr inbounds ptr, ptr %26, i64 %28
  store ptr null, ptr %29, align 8, !tbaa !45
  %30 = icmp eq i32 %27, %24
  br i1 %30, label %31, label %Cbs_QuePush.exit17

31:                                               ; preds = %Cbs_QuePush.exit
  %32 = shl nsw i32 %24, 1
  store i32 %32, ptr %9, align 8, !tbaa !50
  %33 = getelementptr inbounds nuw i8, ptr %0, i64 120
  %34 = sext i32 %32 to i64
  %35 = shl nsw i64 %34, 3
  %36 = tail call ptr @realloc(ptr noundef nonnull %26, i64 noundef %35) #25
  %.pre12.pre.i15 = load i32, ptr %7, align 4, !tbaa !49
  %.pre32.pre = load i32, ptr %9, align 8, !tbaa !50
  store ptr %36, ptr %33, align 8, !tbaa !51
  br label %Cbs_QuePush.exit17

Cbs_QuePush.exit17:                               ; preds = %Cbs_QuePush.exit, %31
  %37 = phi i32 [ %.pre32.pre, %31 ], [ %24, %Cbs_QuePush.exit ]
  %38 = phi i32 [ %.pre12.pre.i15, %31 ], [ %27, %Cbs_QuePush.exit ]
  %39 = phi ptr [ %36, %31 ], [ %26, %Cbs_QuePush.exit ]
  %40 = add nsw i32 %38, 1
  store i32 %40, ptr %7, align 4, !tbaa !49
  %41 = sext i32 %38 to i64
  %42 = getelementptr inbounds ptr, ptr %39, i64 %41
  store ptr %2, ptr %42, align 8, !tbaa !45
  %43 = icmp eq i32 %40, %37
  br i1 %43, label %44, label %Cbs_QuePush.exit24

44:                                               ; preds = %Cbs_QuePush.exit17
  %45 = shl nsw i32 %37, 1
  store i32 %45, ptr %9, align 8, !tbaa !50
  %46 = getelementptr inbounds nuw i8, ptr %0, i64 120
  %47 = sext i32 %45 to i64
  %48 = shl nsw i64 %47, 3
  %49 = tail call ptr @realloc(ptr noundef nonnull %39, i64 noundef %48) #25
  %.pre12.pre.i22 = load i32, ptr %7, align 4, !tbaa !49
  store ptr %49, ptr %46, align 8, !tbaa !51
  br label %Cbs_QuePush.exit24

Cbs_QuePush.exit24:                               ; preds = %Cbs_QuePush.exit17, %44
  %50 = phi i32 [ %.pre12.pre.i22, %44 ], [ %40, %Cbs_QuePush.exit17 ]
  %51 = phi ptr [ %49, %44 ], [ %39, %Cbs_QuePush.exit17 ]
  %52 = add nsw i32 %50, 1
  store i32 %52, ptr %7, align 4, !tbaa !49
  %53 = sext i32 %50 to i64
  %54 = getelementptr inbounds ptr, ptr %51, i64 %53
  store ptr %3, ptr %54, align 8, !tbaa !45
  %.not = icmp eq ptr %4, null
  br i1 %.not, label %69, label %55

55:                                               ; preds = %Cbs_QuePush.exit24
  %56 = load i32, ptr %9, align 8, !tbaa !50
  %57 = icmp eq i32 %52, %56
  br i1 %57, label %58, label %Cbs_QuePush.exit31

58:                                               ; preds = %55
  %59 = shl nsw i32 %52, 1
  store i32 %59, ptr %9, align 8, !tbaa !50
  %60 = getelementptr inbounds nuw i8, ptr %0, i64 120
  %61 = sext i32 %59 to i64
  %62 = shl nsw i64 %61, 3
  %63 = tail call ptr @realloc(ptr noundef nonnull %51, i64 noundef %62) #25
  %.pre12.pre.i29 = load i32, ptr %7, align 4, !tbaa !49
  store ptr %63, ptr %60, align 8, !tbaa !51
  br label %Cbs_QuePush.exit31

Cbs_QuePush.exit31:                               ; preds = %55, %58
  %64 = phi i32 [ %.pre12.pre.i29, %58 ], [ %52, %55 ]
  %65 = phi ptr [ %63, %58 ], [ %51, %55 ]
  %66 = add nsw i32 %64, 1
  store i32 %66, ptr %7, align 4, !tbaa !49
  %67 = sext i32 %64 to i64
  %68 = getelementptr inbounds ptr, ptr %65, i64 %67
  store ptr %4, ptr %68, align 8, !tbaa !45
  br label %69

69:                                               ; preds = %Cbs_QuePush.exit31, %Cbs_QuePush.exit24
  tail call fastcc void @Cbs_ManDeriveReason(ptr noundef nonnull %0, i32 noundef %1)
  %70 = load i32, ptr %6, align 8, !tbaa !55
  %71 = load i32, ptr %7, align 4, !tbaa !49
  %72 = load i32, ptr %9, align 8, !tbaa !50
  %73 = icmp eq i32 %71, %72
  br i1 %73, label %74, label %._crit_edge.i.i

._crit_edge.i.i:                                  ; preds = %69
  %.phi.trans.insert.i.i = getelementptr inbounds nuw i8, ptr %0, i64 120
  %.pre.i.i = load ptr, ptr %.phi.trans.insert.i.i, align 8, !tbaa !51
  br label %Cbs_QueFinish.exit

74:                                               ; preds = %69
  %75 = shl nsw i32 %71, 1
  store i32 %75, ptr %9, align 8, !tbaa !50
  %76 = getelementptr inbounds nuw i8, ptr %0, i64 120
  %77 = load ptr, ptr %76, align 8, !tbaa !51
  %.not.i.i = icmp eq ptr %77, null
  %78 = sext i32 %75 to i64
  %79 = shl nsw i64 %78, 3
  br i1 %.not.i.i, label %82, label %80

80:                                               ; preds = %74
  %81 = tail call ptr @realloc(ptr noundef nonnull %77, i64 noundef %79) #25
  %.pre12.pre.i.i = load i32, ptr %7, align 4, !tbaa !49
  br label %84

82:                                               ; preds = %74
  %83 = tail call noalias ptr @malloc(i64 noundef %79) #23
  br label %84

84:                                               ; preds = %82, %80
  %.pre12.i.i = phi i32 [ %.pre12.pre.i.i, %80 ], [ %71, %82 ]
  %85 = phi ptr [ %81, %80 ], [ %83, %82 ]
  store ptr %85, ptr %76, align 8, !tbaa !51
  br label %Cbs_QueFinish.exit

Cbs_QueFinish.exit:                               ; preds = %._crit_edge.i.i, %84
  %86 = phi i32 [ %71, %._crit_edge.i.i ], [ %.pre12.i.i, %84 ]
  %87 = phi ptr [ %.pre.i.i, %._crit_edge.i.i ], [ %85, %84 ]
  %88 = add nsw i32 %86, 1
  store i32 %88, ptr %7, align 4, !tbaa !49
  %89 = sext i32 %86 to i64
  %90 = getelementptr inbounds ptr, ptr %87, i64 %89
  store ptr null, ptr %90, align 8, !tbaa !45
  store i32 %88, ptr %6, align 8, !tbaa !55
  ret i32 %70
}